target datalayout = "e-m:e-p270:32:32-p271:32:32-p272:64:64-i64:64-i128:128-f80:128-n8:16:32:64-S128"
target triple = "x86_64-pc-linux-gnu"

%struct.engineInfo = type { ptr, ptr, ptr }
%struct.engine = type { ptr, ptr, ptr, ptr, ptr, ptr, ptr, ptr }
%struct.functionInfo = type { ptr, ptr, ptr, ptr, i64 }
%struct.functionLibInfo = type { ptr, ptr, ptr, ptr }
%struct.functionsLibCtx = type { ptr, ptr, i64, ptr }
%struct.functionsLibEngineStats = type { i64, i64 }
%struct.dict = type { ptr, [2 x ptr], [2 x i64], i64, i16, [2 x i8], i16, [0 x ptr] }

@.str.3 = private unnamed_addr constant [12 x i8] c"functions.c\00", align 1
@.str.84 = private unnamed_addr constant [15 x i8] c"ret == DICT_OK\00", align 1
@.str.85 = private unnamed_addr constant [6 x i8] c"stats\00", align 1

; Function Attrs: nounwind uwtable
define internal i64 @libraryMallocSize(ptr noundef %0) #1 {
  %2 = alloca ptr, align 8
  store ptr %0, ptr %2, align 8, !tbaa !58
  %3 = load ptr, ptr %2, align 8, !tbaa !58
  %4 = call i64 @je_malloc_usable_size(ptr noundef %3) #11
  %5 = load ptr, ptr %2, align 8, !tbaa !58
  %6 = getelementptr inbounds nuw %struct.functionLibInfo, ptr %5, i32 0, i32 0
  %7 = load ptr, ptr %6, align 8, !tbaa !116
  %8 = call i64 @sdsZmallocSize(ptr noundef %7)
  %9 = add i64 %4, %8
  %10 = load ptr, ptr %2, align 8, !tbaa !58
  %11 = getelementptr inbounds nuw %struct.functionLibInfo, ptr %10, i32 0, i32 3
  %12 = load ptr, ptr %11, align 8, !tbaa !119
  %13 = call i64 @sdsZmallocSize(ptr noundef %12)
  %14 = add i64 %9, %13
  ret i64 %14
}

; Function Attrs: nounwind uwtable
define internal i64 @functionMallocSize(ptr noundef %0) #1 {
  %2 = alloca ptr, align 8
  store ptr %0, ptr %2, align 8, !tbaa !25
  %3 = load ptr, ptr %2, align 8, !tbaa !25
  %4 = call i64 @je_malloc_usable_size(ptr noundef %3) #11
  %5 = load ptr, ptr %2, align 8, !tbaa !25
  %6 = getelementptr inbounds nuw %struct.functionInfo, ptr %5, i32 0, i32 0
  %7 = load ptr, ptr %6, align 8, !tbaa !27
  %8 = call i64 @sdsZmallocSize(ptr noundef %7)
  %9 = add i64 %4, %8
  %10 = load ptr, ptr %2, align 8, !tbaa !25
  %11 = getelementptr inbounds nuw %struct.functionInfo, ptr %10, i32 0, i32 3
  %12 = load ptr, ptr %11, align 8, !tbaa !31
  %13 = icmp ne ptr %12, null
  br i1 %13, label %14, label %19

14:                                               ; preds = %1
  %15 = load ptr, ptr %2, align 8, !tbaa !25
  %16 = getelementptr inbounds nuw %struct.functionInfo, ptr %15, i32 0, i32 3
  %17 = load ptr, ptr %16, align 8, !tbaa !31
  %18 = call i64 @sdsZmallocSize(ptr noundef %17)
  br label %20

19:                                               ; preds = %1
  br label %20

20:                                               ; preds = %19, %14
  %21 = phi i64 [ %18, %14 ], [ 0, %19 ]
  %22 = add i64 %9, %21
  %23 = load ptr, ptr %2, align 8, !tbaa !25
  %24 = getelementptr inbounds nuw %struct.functionInfo, ptr %23, i32 0, i32 2
  %25 = load ptr, ptr %24, align 8, !tbaa !32
  %26 = getelementptr inbounds nuw %struct.functionLibInfo, ptr %25, i32 0, i32 2
  %27 = load ptr, ptr %26, align 8, !tbaa !33
  %28 = getelementptr inbounds nuw %struct.engineInfo, ptr %27, i32 0, i32 1
  %29 = load ptr, ptr %28, align 8, !tbaa !19
  %30 = getelementptr inbounds nuw %struct.engine, ptr %29, i32 0, i32 4
  %31 = load ptr, ptr %30, align 8, !tbaa !164
  %32 = load ptr, ptr %2, align 8, !tbaa !25
  %33 = getelementptr inbounds nuw %struct.functionInfo, ptr %32, i32 0, i32 1
  %34 = load ptr, ptr %33, align 8, !tbaa !37
  %35 = call i64 %31(ptr noundef %34)
  %36 = add i64 %22, %35
  ret i64 %36
}

; Function Attrs: nounwind uwtable
define internal void @libraryUnlink(ptr noundef %0, ptr noundef %1) #1 {
  %3 = alloca ptr, align 8
  %4 = alloca ptr, align 8
  %5 = alloca ptr, align 8
  %6 = alloca ptr, align 8
  %7 = alloca ptr, align 8
  %8 = alloca i32, align 4
  %9 = alloca ptr, align 8
  store ptr %0, ptr %3, align 8, !tbaa !38
  store ptr %1, ptr %4, align 8, !tbaa !58
  call void @llvm.lifetime.start.p0(i64 8, ptr %5) #11
  %10 = load ptr, ptr %4, align 8, !tbaa !58
  %11 = getelementptr inbounds nuw %struct.functionLibInfo, ptr %10, i32 0, i32 1
  %12 = load ptr, ptr %11, align 8, !tbaa !62
  %13 = call ptr @dictGetIterator(ptr noundef %12)
  store ptr %13, ptr %5, align 8, !tbaa !44
  call void @llvm.lifetime.start.p0(i64 8, ptr %6) #11
  store ptr null, ptr %6, align 8, !tbaa !46
  br label %14

14:                                               ; preds = %39, %2
  %15 = load ptr, ptr %5, align 8, !tbaa !44
  %16 = call ptr @dictNext(ptr noundef %15)
  store ptr %16, ptr %6, align 8, !tbaa !46
  %17 = icmp ne ptr %16, null
  br i1 %17, label %18, label %46

18:                                               ; preds = %14
  call void @llvm.lifetime.start.p0(i64 8, ptr %7) #11
  %19 = load ptr, ptr %6, align 8, !tbaa !46
  %20 = call ptr @dictGetVal(ptr noundef %19)
  store ptr %20, ptr %7, align 8, !tbaa !25
  call void @llvm.lifetime.start.p0(i64 4, ptr %8) #11
  %21 = load ptr, ptr %3, align 8, !tbaa !38
  %22 = getelementptr inbounds nuw %struct.functionsLibCtx, ptr %21, i32 0, i32 1
  %23 = load ptr, ptr %22, align 8, !tbaa !40
  %24 = load ptr, ptr %7, align 8, !tbaa !25
  %25 = getelementptr inbounds nuw %struct.functionInfo, ptr %24, i32 0, i32 0
  %26 = load ptr, ptr %25, align 8, !tbaa !27
  %27 = call i32 @dictDelete(ptr noundef %23, ptr noundef %26)
  store i32 %27, ptr %8, align 4, !tbaa !54
  %28 = load i32, ptr %8, align 4, !tbaa !54
  %29 = icmp eq i32 %28, 0
  %30 = xor i1 %29, true
  %31 = xor i1 %30, true
  %32 = zext i1 %31 to i32
  %33 = sext i32 %32 to i64
  %34 = call i64 @llvm.expect.i64(i64 %33, i64 1)
  %35 = icmp ne i64 %34, 0
  br i1 %35, label %36, label %37

36:                                               ; preds = %18
  br label %39

37:                                               ; preds = %18
  call void @_serverAssert(ptr noundef @.str.84, ptr noundef @.str.3, i32 noundef 284)
  call void @abort() #13
  unreachable

38:                                               ; No predecessors!
  br label %39

39:                                               ; preds = %38, %36
  %40 = load ptr, ptr %7, align 8, !tbaa !25
  %41 = call i64 @functionMallocSize(ptr noundef %40)
  %42 = load ptr, ptr %3, align 8, !tbaa !38
  %43 = getelementptr inbounds nuw %struct.functionsLibCtx, ptr %42, i32 0, i32 2
  %44 = load i64, ptr %43, align 8, !tbaa !53
  %45 = sub i64 %44, %41
  store i64 %45, ptr %43, align 8, !tbaa !53
  call void @llvm.lifetime.end.p0(i64 4, ptr %8) #11
  call void @llvm.lifetime.end.p0(i64 8, ptr %7) #11
  br label %14, !llvm.loop !129

46:                                               ; preds = %14
  %47 = load ptr, ptr %5, align 8, !tbaa !44
  call void @dictReleaseIterator(ptr noundef %47)
  %48 = load ptr, ptr %3, align 8, !tbaa !38
  %49 = getelementptr inbounds nuw %struct.functionsLibCtx, ptr %48, i32 0, i32 0
  %50 = load ptr, ptr %49, align 8, !tbaa !42
  %51 = load ptr, ptr %4, align 8, !tbaa !58
  %52 = getelementptr inbounds nuw %struct.functionLibInfo, ptr %51, i32 0, i32 0
  %53 = load ptr, ptr %52, align 8, !tbaa !116
  %54 = call ptr @dictUnlink(ptr noundef %50, ptr noundef %53)
  store ptr %54, ptr %6, align 8, !tbaa !46
  %55 = load ptr, ptr %3, align 8, !tbaa !38
  %56 = getelementptr inbounds nuw %struct.functionsLibCtx, ptr %55, i32 0, i32 0
  %57 = load ptr, ptr %56, align 8, !tbaa !42
  %58 = load ptr, ptr %6, align 8, !tbaa !46
  call void @dictSetVal(ptr noundef %57, ptr noundef %58, ptr noundef null)
  %59 = load ptr, ptr %3, align 8, !tbaa !38
  %60 = getelementptr inbounds nuw %struct.functionsLibCtx, ptr %59, i32 0, i32 0
  %61 = load ptr, ptr %60, align 8, !tbaa !42
  %62 = load ptr, ptr %6, align 8, !tbaa !46
  call void @dictFreeUnlinkedEntry(ptr noundef %61, ptr noundef %62)
  %63 = load ptr, ptr %4, align 8, !tbaa !58
  %64 = call i64 @libraryMallocSize(ptr noundef %63)
  %65 = load ptr, ptr %3, align 8, !tbaa !38
  %66 = getelementptr inbounds nuw %struct.functionsLibCtx, ptr %65, i32 0, i32 2
  %67 = load i64, ptr %66, align 8, !tbaa !53
  %68 = sub i64 %67, %64
  store i64 %68, ptr %66, align 8, !tbaa !53
  call void @llvm.lifetime.start.p0(i64 8, ptr %9) #11
  %69 = load ptr, ptr %3, align 8, !tbaa !38
  %70 = getelementptr inbounds nuw %struct.functionsLibCtx, ptr %69, i32 0, i32 3
  %71 = load ptr, ptr %70, align 8, !tbaa !43
  %72 = load ptr, ptr %4, align 8, !tbaa !58
  %73 = getelementptr inbounds nuw %struct.functionLibInfo, ptr %72, i32 0, i32 2
  %74 = load ptr, ptr %73, align 8, !tbaa !33
  %75 = getelementptr inbounds nuw %struct.engineInfo, ptr %74, i32 0, i32 0
  %76 = load ptr, ptr %75, align 8, !tbaa !18
  %77 = call ptr @dictFetchValue(ptr noundef %71, ptr noundef %76)
  store ptr %77, ptr %9, align 8, !tbaa !23
  %78 = load ptr, ptr %9, align 8, !tbaa !23
  %79 = icmp ne ptr %78, null
  %80 = xor i1 %79, true
  %81 = xor i1 %80, true
  %82 = zext i1 %81 to i32
  %83 = sext i32 %82 to i64
  %84 = call i64 @llvm.expect.i64(i64 %83, i64 1)
  %85 = icmp ne i64 %84, 0
  br i1 %85, label %86, label %87

86:                                               ; preds = %46
  br label %89

87:                                               ; preds = %46
  call void @_serverAssert(ptr noundef @.str.85, ptr noundef @.str.3, i32 noundef 295)
  call void @abort() #13
  unreachable

88:                                               ; No predecessors!
  br label %89

89:                                               ; preds = %88, %86
  %90 = load ptr, ptr %9, align 8, !tbaa !23
  %91 = getelementptr inbounds nuw %struct.functionsLibEngineStats, ptr %90, i32 0, i32 0
  %92 = load i64, ptr %91, align 8, !tbaa !50
  %93 = add i64 %92, -1
  store i64 %93, ptr %91, align 8, !tbaa !50
  %94 = load ptr, ptr %4, align 8, !tbaa !58
  %95 = getelementptr inbounds nuw %struct.functionLibInfo, ptr %94, i32 0, i32 1
  %96 = load ptr, ptr %95, align 8, !tbaa !62
  %97 = getelementptr inbounds nuw %struct.dict, ptr %96, i32 0, i32 2
  %98 = getelementptr inbounds [2 x i64], ptr %97, i64 0, i64 0
  %99 = load i64, ptr %98, align 8, !tbaa !59
  %100 = load ptr, ptr %4, align 8, !tbaa !58
  %101 = getelementptr inbounds nuw %struct.functionLibInfo, ptr %100, i32 0, i32 1
  %102 = load ptr, ptr %101, align 8, !tbaa !62
  %103 = getelementptr inbounds nuw %struct.dict, ptr %102, i32 0, i32 2
  %104 = getelementptr inbounds [2 x i64], ptr %103, i64 0, i64 1
  %105 = load i64, ptr %104, align 8, !tbaa !59
  %106 = add i64 %99, %105
  %107 = load ptr, ptr %9, align 8, !tbaa !23
  %108 = getelementptr inbounds nuw %struct.functionsLibEngineStats, ptr %107, i32 0, i32 1
  %109 = load i64, ptr %108, align 8, !tbaa !48
  %110 = sub i64 %109, %106
  store i64 %110, ptr %108, align 8, !tbaa !48
  call void @llvm.lifetime.end.p0(i64 8, ptr %9) #11
  call void @llvm.lifetime.end.p0(i64 8, ptr %6) #11
  call void @llvm.lifetime.end.p0(i64 8, ptr %5) #11
  ret void
}