; Function Attrs: nounwind uwtable
define internal fastcc void @libraryUnlink(ptr noundef captures(none) %0, ptr noundef nonnull %1) unnamed_addr #1 {
  %3 = getelementptr inbounds nuw i8, ptr %1, i64 8
  %4 = load ptr, ptr %3, align 8, !tbaa !30
  %5 = tail call ptr @dictGetIterator(ptr noundef %4) #12
  %6 = tail call ptr @dictNext(ptr noundef %5) #12
  %.not39 = icmp eq ptr %6, null
  br i1 %.not39, label %._crit_edge, label %.lr.ph

.lr.ph:                                           ; preds = %2
  %7 = getelementptr inbounds nuw i8, ptr %0, i64 8
  %8 = getelementptr inbounds nuw i8, ptr %0, i64 16
  br label %9

9:                                                ; preds = %.lr.ph, %functionMallocSize.exit
  %10 = phi ptr [ %6, %.lr.ph ], [ %42, %functionMallocSize.exit ]
  %11 = tail call ptr @dictGetVal(ptr noundef nonnull %10) #12
  %12 = load ptr, ptr %7, align 8, !tbaa !33
  %13 = load ptr, ptr %11, align 8, !tbaa !18
  %14 = tail call i32 @dictDelete(ptr noundef %12, ptr noundef %13) #12
  %15 = icmp eq i32 %14, 0
  br i1 %15, label %17, label %16, !prof !54

16:                                               ; preds = %9
  tail call void @_serverAssert(ptr noundef nonnull @.str.84, ptr noundef nonnull @.str.3, i32 noundef 284) #12
  tail call void @abort() #14
  unreachable

17:                                               ; preds = %9
  %18 = tail call i64 @je_malloc_usable_size(ptr noundef nonnull %11) #12
  %19 = load ptr, ptr %11, align 8, !tbaa !18
  %20 = tail call i64 @sdsZmallocSize(ptr noundef %19) #12
  %21 = getelementptr inbounds nuw i8, ptr %11, i64 24
  %22 = load ptr, ptr %21, align 8, !tbaa !22
  %.not.i = icmp eq ptr %22, null
  br i1 %.not.i, label %functionMallocSize.exit, label %23

23:                                               ; preds = %17
  %24 = tail call i64 @sdsZmallocSize(ptr noundef nonnull %22) #12
  br label %functionMallocSize.exit

functionMallocSize.exit:                          ; preds = %17, %23
  %25 = phi i64 [ %24, %23 ], [ 0, %17 ]
  %26 = getelementptr inbounds nuw i8, ptr %11, i64 16
  %27 = load ptr, ptr %26, align 8, !tbaa !23
  %28 = getelementptr inbounds nuw i8, ptr %27, i64 16
  %29 = load ptr, ptr %28, align 8, !tbaa !24
  %30 = getelementptr inbounds nuw i8, ptr %29, i64 8
  %31 = load ptr, ptr %30, align 8, !tbaa !14
  %32 = getelementptr inbounds nuw i8, ptr %31, i64 32
  %33 = load ptr, ptr %32, align 8, !tbaa !117
  %34 = getelementptr inbounds nuw i8, ptr %11, i64 8
  %35 = load ptr, ptr %34, align 8, !tbaa !29
  %36 = tail call i64 %33(ptr noundef %35) #12
  %37 = load i64, ptr %8, align 8, !tbaa !39
  %38 = add i64 %20, %18
  %39 = add i64 %38, %25
  %40 = add i64 %39, %36
  %41 = sub i64 %37, %40
  store i64 %41, ptr %8, align 8, !tbaa !39
  %42 = tail call ptr @dictNext(ptr noundef %5) #12
  %.not = icmp eq ptr %42, null
  br i1 %.not, label %._crit_edge, label %9, !llvm.loop !118

._crit_edge:                                      ; preds = %functionMallocSize.exit, %2
  tail call void @dictReleaseIterator(ptr noundef %5) #12
  %43 = load ptr, ptr %0, align 8, !tbaa !35
  %44 = load ptr, ptr %1, align 8, !tbaa !31
  %45 = tail call ptr @dictUnlink(ptr noundef %43, ptr noundef %44) #12
  %46 = load ptr, ptr %0, align 8, !tbaa !35
  tail call void @dictSetVal(ptr noundef %46, ptr noundef %45, ptr noundef null) #12
  %47 = load ptr, ptr %0, align 8, !tbaa !35
  tail call void @dictFreeUnlinkedEntry(ptr noundef %47, ptr noundef %45) #12
  %48 = tail call i64 @je_malloc_usable_size(ptr noundef nonnull %1) #12
  %49 = load ptr, ptr %1, align 8, !tbaa !31
  %50 = tail call i64 @sdsZmallocSize(ptr noundef %49) #12
  %51 = getelementptr inbounds nuw i8, ptr %1, i64 24
  %52 = load ptr, ptr %51, align 8, !tbaa !32
  %53 = tail call i64 @sdsZmallocSize(ptr noundef %52) #12
  %54 = getelementptr inbounds nuw i8, ptr %0, i64 16
  %55 = load i64, ptr %54, align 8, !tbaa !39
  %56 = add i64 %50, %48
  %57 = add i64 %56, %53
  %58 = sub i64 %55, %57
  store i64 %58, ptr %54, align 8, !tbaa !39
  %59 = getelementptr inbounds nuw i8, ptr %0, i64 24
  %60 = load ptr, ptr %59, align 8, !tbaa !36
  %61 = getelementptr inbounds nuw i8, ptr %1, i64 16
  %62 = load ptr, ptr %61, align 8, !tbaa !24
  %63 = load ptr, ptr %62, align 8, !tbaa !13
  %64 = tail call ptr @dictFetchValue(ptr noundef %60, ptr noundef %63) #12
  %.not24 = icmp eq ptr %64, null
  br i1 %.not24, label %65, label %66, !prof !119

65:                                               ; preds = %._crit_edge
  tail call void @_serverAssert(ptr noundef nonnull @.str.85, ptr noundef nonnull @.str.3, i32 noundef 295) #12
  tail call void @abort() #14
  unreachable

66:                                               ; preds = %._crit_edge
  %67 = load i64, ptr %64, align 8, !tbaa !102
  %68 = add i64 %67, -1
  store i64 %68, ptr %64, align 8, !tbaa !102
  %69 = load ptr, ptr %3, align 8, !tbaa !30
  %70 = getelementptr inbounds nuw i8, ptr %69, i64 24
  %71 = load i64, ptr %70, align 8, !tbaa !49
  %72 = getelementptr inbounds nuw i8, ptr %69, i64 32
  %73 = load i64, ptr %72, align 8, !tbaa !49
  %74 = getelementptr inbounds nuw i8, ptr %64, i64 8
  %75 = load i64, ptr %74, align 8, !tbaa !104
  %76 = add i64 %73, %71
  %77 = sub i64 %75, %76
  store i64 %77, ptr %74, align 8, !tbaa !104
  ret void
}